; ModuleID = '13/429.c'
source_filename = "13/429.c"
target datalayout = "e-m:e-p270:32:32-p271:32:32-p272:64:64-i64:64-f80:128-n8:16:32:64-S128"
target triple = "x86_64-pc-linux-gnu"

@.str = private unnamed_addr constant [3 x i8] c"%d\00", align 1
@.str.1 = private unnamed_addr constant [4 x i8] c"%d \00", align 1

; Function Attrs: noinline nounwind uwtable
define dso_local void @main() #0 {
  %1 = alloca i32, align 4
  %2 = alloca i32, align 4
  %3 = alloca i32, align 4
  %4 = alloca i32, align 4
  %5 = alloca i32, align 4
  %6 = alloca [20000 x i32], align 16
  %7 = alloca [20000 x i32], align 16
  store i32 0, i32* %4, align 4
  store i32 0, i32* %5, align 4
  %8 = call i32 (i8*, ...) @__isoc99_scanf(i8* getelementptr inbounds ([3 x i8], [3 x i8]* @.str, i64 0, i64 0), i32* %2)
  store i32 0, i32* %1, align 4
  br label %9

9:                                                ; preds = %18, %0
  %10 = load i32, i32* %1, align 4
  %11 = load i32, i32* %2, align 4
  %12 = icmp slt i32 %10, %11
  br i1 %12, label %13, label %21

13:                                               ; preds = %9
  %14 = load i32, i32* %1, align 4
  %15 = sext i32 %14 to i64
  %16 = getelementptr inbounds [20000 x i32], [20000 x i32]* %6, i64 0, i64 %15
  %17 = call i32 (i8*, ...) @__isoc99_scanf(i8* getelementptr inbounds ([3 x i8], [3 x i8]* @.str, i64 0, i64 0), i32* %16)
  br label %18

18:                                               ; preds = %13
  %19 = load i32, i32* %1, align 4
  %20 = add nsw i32 %19, 1
  store i32 %20, i32* %1, align 4
  br label %9

21:                                               ; preds = %9
  store i32 0, i32* %1, align 4
  br label %22

22:                                               ; preds = %59, %21
  %23 = load i32, i32* %1, align 4
  %24 = load i32, i32* %2, align 4
  %25 = icmp slt i32 %23, %24
  br i1 %25, label %26, label %62

26:                                               ; preds = %22
  %27 = load i32, i32* %1, align 4
  %28 = sext i32 %27 to i64
  %29 = getelementptr inbounds [20000 x i32], [20000 x i32]* %6, i64 0, i64 %28
  %30 = load i32, i32* %29, align 4
  %31 = icmp eq i32 %30, 0
  br i1 %31, label %32, label %33

32:                                               ; preds = %26
  br label %59

33:                                               ; preds = %26
  %34 = load i32, i32* %1, align 4
  %35 = add nsw i32 %34, 1
  store i32 %35, i32* %3, align 4
  br label %36

36:                                               ; preds = %55, %33
  %37 = load i32, i32* %3, align 4
  %38 = load i32, i32* %2, align 4
  %39 = icmp slt i32 %37, %38
  br i1 %39, label %40, label %58

40:                                               ; preds = %36
  %41 = load i32, i32* %1, align 4
  %42 = sext i32 %41 to i64
  %43 = getelementptr inbounds [20000 x i32], [20000 x i32]* %6, i64 0, i64 %42
  %44 = load i32, i32* %43, align 4
  %45 = load i32, i32* %3, align 4
  %46 = sext i32 %45 to i64
  %47 = getelementptr inbounds [20000 x i32], [20000 x i32]* %6, i64 0, i64 %46
  %48 = load i32, i32* %47, align 4
  %49 = icmp eq i32 %44, %48
  br i1 %49, label %50, label %54

50:                                               ; preds = %40
  %51 = load i32, i32* %3, align 4
  %52 = sext i32 %51 to i64
  %53 = getelementptr inbounds [20000 x i32], [20000 x i32]* %6, i64 0, i64 %52
  store i32 0, i32* %53, align 4
  br label %54

54:                                               ; preds = %50, %40
  br label %55

55:                                               ; preds = %54
  %56 = load i32, i32* %3, align 4
  %57 = add nsw i32 %56, 1
  store i32 %57, i32* %3, align 4
  br label %36

58:                                               ; preds = %36
  br label %59

59:                                               ; preds = %58, %32
  %60 = load i32, i32* %1, align 4
  %61 = add nsw i32 %60, 1
  store i32 %61, i32* %1, align 4
  br label %22

62:                                               ; preds = %22
  store i32 0, i32* %1, align 4
  br label %63

63:                                               ; preds = %87, %62
  %64 = load i32, i32* %1, align 4
  %65 = load i32, i32* %2, align 4
  %66 = icmp slt i32 %64, %65
  br i1 %66, label %67, label %90

67:                                               ; preds = %63
  %68 = load i32, i32* %1, align 4
  %69 = sext i32 %68 to i64
  %70 = getelementptr inbounds [20000 x i32], [20000 x i32]* %6, i64 0, i64 %69
  %71 = load i32, i32* %70, align 4
  %72 = icmp ne i32 %71, 0
  br i1 %72, label %73, label %83

73:                                               ; preds = %67
  %74 = load i32, i32* %1, align 4
  %75 = sext i32 %74 to i64
  %76 = getelementptr inbounds [20000 x i32], [20000 x i32]* %6, i64 0, i64 %75
  %77 = load i32, i32* %76, align 4
  %78 = load i32, i32* %4, align 4
  %79 = sext i32 %78 to i64
  %80 = getelementptr inbounds [20000 x i32], [20000 x i32]* %7, i64 0, i64 %79
  store i32 %77, i32* %80, align 4
  %81 = load i32, i32* %4, align 4
  %82 = add nsw i32 %81, 1
  store i32 %82, i32* %4, align 4
  br label %86

83:                                               ; preds = %67
  %84 = load i32, i32* %5, align 4
  %85 = add nsw i32 %84, 1
  store i32 %85, i32* %5, align 4
  br label %86

86:                                               ; preds = %83, %73
  br label %87

87:                                               ; preds = %86
  %88 = load i32, i32* %1, align 4
  %89 = add nsw i32 %88, 1
  store i32 %89, i32* %1, align 4
  br label %63

90:                                               ; preds = %63
  store i32 0, i32* %4, align 4
  br label %91

91:                                               ; preds = %104, %90
  %92 = load i32, i32* %4, align 4
  %93 = load i32, i32* %2, align 4
  %94 = load i32, i32* %5, align 4
  %95 = sub nsw i32 %93, %94
  %96 = sub nsw i32 %95, 1
  %97 = icmp slt i32 %92, %96
  br i1 %97, label %98, label %107

98:                                               ; preds = %91
  %99 = load i32, i32* %4, align 4
  %100 = sext i32 %99 to i64
  %101 = getelementptr inbounds [20000 x i32], [20000 x i32]* %7, i64 0, i64 %100
  %102 = load i32, i32* %101, align 4
  %103 = call i32 (i8*, ...) @printf(i8* getelementptr inbounds ([4 x i8], [4 x i8]* @.str.1, i64 0, i64 0), i32 %102)
  br label %104

104:                                              ; preds = %98
  %105 = load i32, i32* %4, align 4
  %106 = add nsw i32 %105, 1
  store i32 %106, i32* %4, align 4
  br label %91

107:                                              ; preds = %91
  %108 = load i32, i32* %2, align 4
  %109 = load i32, i32* %5, align 4
  %110 = sub nsw i32 %108, %109
  %111 = sub nsw i32 %110, 1
  %112 = sext i32 %111 to i64
  %113 = getelementptr inbounds [20000 x i32], [20000 x i32]* %7, i64 0, i64 %112
  %114 = load i32, i32* %113, align 4
  %115 = call i32 (i8*, ...) @printf(i8* getelementptr inbounds ([3 x i8], [3 x i8]* @.str, i64 0, i64 0), i32 %114)
  ret void
}

declare dso_local i32 @__isoc99_scanf(i8*, ...) #1

declare dso_local i32 @printf(i8*, ...) #1


!llvm.module.flags = !{!0}
!llvm.ident = !{!1}

!0 = !{i32 1, !"wchar_size", i32 4}
!1 = !{!"clang version 10.0.0-4ubuntu1 "}
